target datalayout = "e-m:e-p270:32:32-p271:32:32-p272:64:64-i64:64-i128:128-f80:128-n8:16:32:64-S128"
target triple = "x86_64-pc-linux-gnu"

%struct.SDL_Properties = type { ptr, ptr }
%struct.CopyOnePropertyData = type { ptr, i8 }
%struct.SDL_Property = type { i32, %union.anon, ptr, ptr, ptr }
%union.anon = type { ptr }

; Function Attrs: nounwind uwtable
define internal void @SDL_FreePropertyWithCleanup(ptr noundef %0, ptr noundef %1, ptr noundef %2, i1 noundef zeroext %3) #0 {
  %5 = alloca ptr, align 8
  %6 = alloca ptr, align 8
  %7 = alloca ptr, align 8
  %8 = alloca i8, align 1
  %9 = alloca ptr, align 8
  store ptr %0, ptr %5, align 8
  store ptr %1, ptr %6, align 8
  store ptr %2, ptr %7, align 8
  %10 = zext i1 %3 to i8
  store i8 %10, ptr %8, align 1
  call void @llvm.lifetime.start.p0(i64 8, ptr %9) #6
  %11 = load ptr, ptr %6, align 8
  store ptr %11, ptr %9, align 8
  %12 = load ptr, ptr %9, align 8
  %13 = icmp ne ptr %12, null
  br i1 %13, label %14, label %46

14:                                               ; preds = %4
  %15 = load ptr, ptr %9, align 8
  %16 = getelementptr inbounds nuw %struct.SDL_Property, ptr %15, i32 0, i32 0
  %17 = load i32, ptr %16, align 8
  switch i32 %17, label %41 [
    i32 1, label %18
    i32 2, label %37
  ]

18:                                               ; preds = %14
  %19 = load ptr, ptr %9, align 8
  %20 = getelementptr inbounds nuw %struct.SDL_Property, ptr %19, i32 0, i32 3
  %21 = load ptr, ptr %20, align 8
  %22 = icmp ne ptr %21, null
  br i1 %22, label %23, label %36

23:                                               ; preds = %18
  %24 = load i8, ptr %8, align 1, !range !3, !noundef !4
  %25 = trunc i8 %24 to i1
  br i1 %25, label %26, label %36

26:                                               ; preds = %23
  %27 = load ptr, ptr %9, align 8
  %28 = getelementptr inbounds nuw %struct.SDL_Property, ptr %27, i32 0, i32 3
  %29 = load ptr, ptr %28, align 8
  %30 = load ptr, ptr %9, align 8
  %31 = getelementptr inbounds nuw %struct.SDL_Property, ptr %30, i32 0, i32 4
  %32 = load ptr, ptr %31, align 8
  %33 = load ptr, ptr %9, align 8
  %34 = getelementptr inbounds nuw %struct.SDL_Property, ptr %33, i32 0, i32 1
  %35 = load ptr, ptr %34, align 8
  call void %29(ptr noundef %32, ptr noundef %35)
  br label %36

36:                                               ; preds = %26, %23, %18
  br label %42

37:                                               ; preds = %14
  %38 = load ptr, ptr %9, align 8
  %39 = getelementptr inbounds nuw %struct.SDL_Property, ptr %38, i32 0, i32 1
  %40 = load ptr, ptr %39, align 8
  call void @SDL_free_REAL(ptr noundef %40)
  br label %42

41:                                               ; preds = %14
  br label %42

42:                                               ; preds = %41, %37, %36
  %43 = load ptr, ptr %9, align 8
  %44 = getelementptr inbounds nuw %struct.SDL_Property, ptr %43, i32 0, i32 2
  %45 = load ptr, ptr %44, align 8
  call void @SDL_free_REAL(ptr noundef %45)
  br label %46

46:                                               ; preds = %42, %4
  %47 = load ptr, ptr %5, align 8
  call void @SDL_free_REAL(ptr noundef %47)
  %48 = load ptr, ptr %6, align 8
  call void @SDL_free_REAL(ptr noundef %48)
  call void @llvm.lifetime.end.p0(i64 8, ptr %9) #6
  ret void
}

; Function Attrs: nounwind uwtable
define internal zeroext i1 @CopyOneProperty(ptr noundef %0, ptr noundef %1, ptr noundef %2, ptr noundef %3) #0 {
  %5 = alloca i1, align 1
  %6 = alloca ptr, align 8
  %7 = alloca ptr, align 8
  %8 = alloca ptr, align 8
  %9 = alloca ptr, align 8
  %10 = alloca ptr, align 8
  %11 = alloca i32, align 4
  %12 = alloca ptr, align 8
  %13 = alloca ptr, align 8
  %14 = alloca ptr, align 8
  %15 = alloca ptr, align 8
  %16 = alloca ptr, align 8
  store ptr %0, ptr %6, align 8
  store ptr %1, ptr %7, align 8
  store ptr %2, ptr %8, align 8
  store ptr %3, ptr %9, align 8
  call void @llvm.lifetime.start.p0(i64 8, ptr %10) #6
  %17 = load ptr, ptr %9, align 8
  store ptr %17, ptr %10, align 8
  %18 = load ptr, ptr %10, align 8
  %19 = getelementptr inbounds nuw %struct.SDL_Property, ptr %18, i32 0, i32 3
  %20 = load ptr, ptr %19, align 8
  %21 = icmp ne ptr %20, null
  br i1 %21, label %22, label %23

22:                                               ; preds = %4
  store i1 true, ptr %5, align 1
  store i32 1, ptr %11, align 4
  br label %82

23:                                               ; preds = %4
  call void @llvm.lifetime.start.p0(i64 8, ptr %12) #6
  %24 = load ptr, ptr %6, align 8
  store ptr %24, ptr %12, align 8
  call void @llvm.lifetime.start.p0(i64 8, ptr %13) #6
  %25 = load ptr, ptr %12, align 8
  %26 = getelementptr inbounds nuw %struct.CopyOnePropertyData, ptr %25, i32 0, i32 0
  %27 = load ptr, ptr %26, align 8
  store ptr %27, ptr %13, align 8
  call void @llvm.lifetime.start.p0(i64 8, ptr %14) #6
  %28 = load ptr, ptr %8, align 8
  store ptr %28, ptr %14, align 8
  call void @llvm.lifetime.start.p0(i64 8, ptr %15) #6
  call void @llvm.lifetime.start.p0(i64 8, ptr %16) #6
  %29 = load ptr, ptr %14, align 8
  %30 = call noalias ptr @SDL_strdup_REAL(ptr noundef %29)
  store ptr %30, ptr %16, align 8
  %31 = load ptr, ptr %16, align 8
  %32 = icmp ne ptr %31, null
  br i1 %32, label %36, label %33

33:                                               ; preds = %23
  %34 = load ptr, ptr %12, align 8
  %35 = getelementptr inbounds nuw %struct.CopyOnePropertyData, ptr %34, i32 0, i32 1
  store i8 0, ptr %35, align 8
  store i1 true, ptr %5, align 1
  store i32 1, ptr %11, align 4
  br label %81

36:                                               ; preds = %23
  %37 = call noalias ptr @SDL_malloc_REAL(i64 noundef 40)
  store ptr %37, ptr %15, align 8
  %38 = load ptr, ptr %15, align 8
  %39 = icmp ne ptr %38, null
  br i1 %39, label %44, label %40

40:                                               ; preds = %36
  %41 = load ptr, ptr %16, align 8
  call void @SDL_free_REAL(ptr noundef %41)
  %42 = load ptr, ptr %12, align 8
  %43 = getelementptr inbounds nuw %struct.CopyOnePropertyData, ptr %42, i32 0, i32 1
  store i8 0, ptr %43, align 8
  store i1 true, ptr %5, align 1
  store i32 1, ptr %11, align 4
  br label %81

44:                                               ; preds = %36
  %45 = load ptr, ptr %15, align 8
  %46 = load ptr, ptr %10, align 8
  call void @llvm.memcpy.p0.p0.i64(ptr align 8 %45, ptr align 8 %46, i64 40, i1 false)
  %47 = load ptr, ptr %10, align 8
  %48 = getelementptr inbounds nuw %struct.SDL_Property, ptr %47, i32 0, i32 0
  %49 = load i32, ptr %48, align 8
  %50 = icmp eq i32 %49, 2
  br i1 %50, label %51, label %68

51:                                               ; preds = %44
  %52 = load ptr, ptr %10, align 8
  %53 = getelementptr inbounds nuw %struct.SDL_Property, ptr %52, i32 0, i32 1
  %54 = load ptr, ptr %53, align 8
  %55 = call noalias ptr @SDL_strdup_REAL(ptr noundef %54)
  %56 = load ptr, ptr %15, align 8
  %57 = getelementptr inbounds nuw %struct.SDL_Property, ptr %56, i32 0, i32 1
  store ptr %55, ptr %57, align 8
  %58 = load ptr, ptr %15, align 8
  %59 = getelementptr inbounds nuw %struct.SDL_Property, ptr %58, i32 0, i32 1
  %60 = load ptr, ptr %59, align 8
  %61 = icmp ne ptr %60, null
  br i1 %61, label %67, label %62

62:                                               ; preds = %51
  %63 = load ptr, ptr %16, align 8
  call void @SDL_free_REAL(ptr noundef %63)
  %64 = load ptr, ptr %15, align 8
  call void @SDL_free_REAL(ptr noundef %64)
  %65 = load ptr, ptr %12, align 8
  %66 = getelementptr inbounds nuw %struct.CopyOnePropertyData, ptr %65, i32 0, i32 1
  store i8 0, ptr %66, align 8
  store i1 true, ptr %5, align 1
  store i32 1, ptr %11, align 4
  br label %81

67:                                               ; preds = %51
  br label %68

68:                                               ; preds = %67, %44
  %69 = load ptr, ptr %13, align 8
  %70 = getelementptr inbounds nuw %struct.SDL_Properties, ptr %69, i32 0, i32 0
  %71 = load ptr, ptr %70, align 8
  %72 = load ptr, ptr %16, align 8
  %73 = load ptr, ptr %15, align 8
  %74 = call zeroext i1 @SDL_InsertIntoHashTable(ptr noundef %71, ptr noundef %72, ptr noundef %73, i1 noundef zeroext true)
  br i1 %74, label %80, label %75

75:                                               ; preds = %68
  %76 = load ptr, ptr %16, align 8
  %77 = load ptr, ptr %15, align 8
  call void @SDL_FreePropertyWithCleanup(ptr noundef %76, ptr noundef %77, ptr noundef null, i1 noundef zeroext false)
  %78 = load ptr, ptr %12, align 8
  %79 = getelementptr inbounds nuw %struct.CopyOnePropertyData, ptr %78, i32 0, i32 1
  store i8 0, ptr %79, align 8
  br label %80

80:                                               ; preds = %75, %68
  store i1 true, ptr %5, align 1
  store i32 1, ptr %11, align 4
  br label %81

81:                                               ; preds = %80, %62, %40, %33
  call void @llvm.lifetime.end.p0(i64 8, ptr %16) #6
  call void @llvm.lifetime.end.p0(i64 8, ptr %15) #6
  call void @llvm.lifetime.end.p0(i64 8, ptr %14) #6
  call void @llvm.lifetime.end.p0(i64 8, ptr %13) #6
  call void @llvm.lifetime.end.p0(i64 8, ptr %12) #6
  br label %82

82:                                               ; preds = %81, %22
  call void @llvm.lifetime.end.p0(i64 8, ptr %10) #6
  %83 = load i1, ptr %5, align 1
  ret i1 %83
}