; Function Attrs: nounwind uwtable
define internal noundef zeroext i1 @CopyOneProperty(ptr noundef captures(none) %0, ptr readnone captures(none) %1, ptr noundef %2, ptr noundef readonly captures(none) %3) #0 {
  %5 = getelementptr inbounds nuw i8, ptr %3, i64 24
  %6 = load ptr, ptr %5, align 8
  %.not = icmp eq ptr %6, null
  br i1 %.not, label %7, label %31

7:                                                ; preds = %4
  %8 = load ptr, ptr %0, align 8
  %9 = tail call noalias ptr @SDL_strdup_REAL(ptr noundef %2) #6
  %.not28 = icmp eq ptr %9, null
  br i1 %.not28, label %.sink.split, label %10

10:                                               ; preds = %7
  %11 = tail call noalias ptr @SDL_malloc_REAL(i64 noundef 40) #6
  %.not29 = icmp eq ptr %11, null
  br i1 %.not29, label %.sink.split.sink.split, label %12

12:                                               ; preds = %10
  tail call void @llvm.memcpy.p0.p0.i64(ptr noundef nonnull align 8 dereferenceable(40) %11, ptr noundef nonnull align 8 dereferenceable(40) %3, i64 40, i1 false)
  %13 = load i32, ptr %3, align 8
  %14 = icmp eq i32 %13, 2
  br i1 %14, label %15, label %20

15:                                               ; preds = %12
  %16 = getelementptr inbounds nuw i8, ptr %3, i64 8
  %17 = load ptr, ptr %16, align 8
  %18 = tail call noalias ptr @SDL_strdup_REAL(ptr noundef %17) #6
  %19 = getelementptr inbounds nuw i8, ptr %11, i64 8
  store ptr %18, ptr %19, align 8
  %.not30 = icmp eq ptr %18, null
  br i1 %.not30, label %.sink.split.sink.split.sink.split, label %20

20:                                               ; preds = %15, %12
  %21 = load ptr, ptr %8, align 8
  %22 = tail call zeroext i1 @SDL_InsertIntoHashTable(ptr noundef %21, ptr noundef nonnull %9, ptr noundef nonnull %11, i1 noundef zeroext true) #6
  br i1 %22, label %31, label %23

23:                                               ; preds = %20
  %24 = load i32, ptr %11, align 8
  %cond = icmp eq i32 %24, 2
  br i1 %cond, label %25, label %SDL_FreePropertyWithCleanup.exit

25:                                               ; preds = %23
  %26 = getelementptr inbounds nuw i8, ptr %11, i64 8
  %27 = load ptr, ptr %26, align 8
  tail call void @SDL_free_REAL(ptr noundef %27) #6
  br label %SDL_FreePropertyWithCleanup.exit

SDL_FreePropertyWithCleanup.exit:                 ; preds = %23, %25
  %28 = getelementptr inbounds nuw i8, ptr %11, i64 16
  %29 = load ptr, ptr %28, align 8
  tail call void @SDL_free_REAL(ptr noundef %29) #6
  br label %.sink.split.sink.split.sink.split

.sink.split.sink.split.sink.split:                ; preds = %15, %SDL_FreePropertyWithCleanup.exit
  tail call void @SDL_free_REAL(ptr noundef nonnull %9) #6
  br label %.sink.split.sink.split

.sink.split.sink.split:                           ; preds = %.sink.split.sink.split.sink.split, %10
  %.sink = phi ptr [ %9, %10 ], [ %11, %.sink.split.sink.split.sink.split ]
  tail call void @SDL_free_REAL(ptr noundef nonnull %.sink) #6
  br label %.sink.split

.sink.split:                                      ; preds = %.sink.split.sink.split, %7
  %30 = getelementptr inbounds nuw i8, ptr %0, i64 8
  store i8 0, ptr %30, align 8
  br label %31

31:                                               ; preds = %.sink.split, %20, %4
  ret i1 true
}